; ModuleID = 'source-C-CXX/61/1491.c'
source_filename = "source-C-CXX/61/1491.c"
target datalayout = "e-m:e-p270:32:32-p271:32:32-p272:64:64-i64:64-f80:128-n8:16:32:64-S128"
target triple = "x86_64-pc-linux-gnu"

; Function Attrs: nounwind sspstrong uwtable
define dso_local i32 @main() local_unnamed_addr #0 {
  %1 = tail call noalias align 16 dereferenceable_or_null(200) i8* @malloc(i64 200) #4
  %2 = tail call i32 (i8*, ...) bitcast (i32 (...)* @gets to i32 (i8*, ...)*)(i8* %1) #4
  br label %3

3:                                                ; preds = %19, %0
  %4 = phi i8* [ %1, %0 ], [ %21, %19 ]
  %5 = phi i32 [ 0, %0 ], [ %20, %19 ]
  %6 = load i8, i8* %4, align 1, !tbaa !5
  switch i8 %6, label %7 [
    i8 0, label %22
    i8 32, label %11
  ]

7:                                                ; preds = %3
  %8 = sext i8 %6 to i32
  %9 = tail call i32 @putchar(i32 %8)
  %10 = load i8, i8* %4, align 1, !tbaa !5
  br label %11

11:                                               ; preds = %3, %7
  %12 = phi i8 [ %10, %7 ], [ %6, %3 ]
  %13 = phi i32 [ 0, %7 ], [ %5, %3 ]
  %14 = icmp eq i8 %12, 32
  %15 = icmp eq i32 %13, 0
  %16 = select i1 %14, i1 %15, i1 false
  br i1 %16, label %17, label %19

17:                                               ; preds = %11
  %18 = tail call i32 @putchar(i32 32)
  br label %19

19:                                               ; preds = %17, %11
  %20 = phi i32 [ 1, %17 ], [ %13, %11 ]
  %21 = getelementptr inbounds i8, i8* %4, i64 1
  br label %3, !llvm.loop !8

22:                                               ; preds = %3
  ret i32 0
}

; Function Attrs: inaccessiblememonly mustprogress nofree nounwind willreturn
declare noalias noundef align 16 i8* @malloc(i64 noundef) local_unnamed_addr #1

declare i32 @gets(...) local_unnamed_addr #2

; Function Attrs: nofree nounwind
declare noundef i32 @putchar(i32 noundef) local_unnamed_addr #3


!llvm.module.flags = !{!0, !1, !2, !3}
!llvm.ident = !{!4}

!0 = !{i32 1, !"wchar_size", i32 4}
!1 = !{i32 7, !"PIC Level", i32 2}
!2 = !{i32 7, !"PIE Level", i32 2}
!3 = !{i32 7, !"uwtable", i32 1}
!4 = !{!"clang version 13.0.0"}
!5 = !{!6, !6, i64 0}
!6 = !{!"omnipotent char", !7, i64 0}
!7 = !{!"Simple C/C++ TBAA"}
!8 = distinct !{!8, !9}
!9 = !{!"llvm.loop.mustprogress"}
